; ModuleID = '44/1322.c'
source_filename = "44/1322.c"
target datalayout = "e-m:e-p270:32:32-p271:32:32-p272:64:64-i64:64-f80:128-n8:16:32:64-S128"
target triple = "x86_64-pc-linux-gnu"

@.str = private unnamed_addr constant [3 x i8] c"%d\00", align 1
@.str.1 = private unnamed_addr constant [2 x i8] c"\0A\00", align 1

; Function Attrs: noinline nounwind uwtable
define dso_local void @main() #0 {
  %1 = alloca [6 x i32], align 16
  %2 = alloca i32, align 4
  %3 = alloca i32, align 4
  store i32 0, i32* %2, align 4
  br label %4

4:                                                ; preds = %12, %0
  %5 = load i32, i32* %2, align 4
  %6 = icmp slt i32 %5, 6
  br i1 %6, label %7, label %15

7:                                                ; preds = %4
  %8 = load i32, i32* %2, align 4
  %9 = sext i32 %8 to i64
  %10 = getelementptr inbounds [6 x i32], [6 x i32]* %1, i64 0, i64 %9
  %11 = call i32 (i8*, ...) @__isoc99_scanf(i8* getelementptr inbounds ([3 x i8], [3 x i8]* @.str, i64 0, i64 0), i32* %10)
  br label %12

12:                                               ; preds = %7
  %13 = load i32, i32* %2, align 4
  %14 = add nsw i32 %13, 1
  store i32 %14, i32* %2, align 4
  br label %4

15:                                               ; preds = %4
  store i32 0, i32* %2, align 4
  br label %16

16:                                               ; preds = %32, %15
  %17 = load i32, i32* %2, align 4
  %18 = icmp slt i32 %17, 6
  br i1 %18, label %19, label %35

19:                                               ; preds = %16
  %20 = load i32, i32* %2, align 4
  %21 = sext i32 %20 to i64
  %22 = getelementptr inbounds [6 x i32], [6 x i32]* %1, i64 0, i64 %21
  %23 = load i32, i32* %22, align 4
  %24 = call i32 @reverse(i32 %23)
  store i32 %24, i32* %3, align 4
  %25 = load i32, i32* %3, align 4
  %26 = call i32 (i8*, ...) @printf(i8* getelementptr inbounds ([3 x i8], [3 x i8]* @.str, i64 0, i64 0), i32 %25)
  %27 = load i32, i32* %2, align 4
  %28 = icmp slt i32 %27, 5
  br i1 %28, label %29, label %31

29:                                               ; preds = %19
  %30 = call i32 (i8*, ...) @printf(i8* getelementptr inbounds ([2 x i8], [2 x i8]* @.str.1, i64 0, i64 0))
  br label %31

31:                                               ; preds = %29, %19
  br label %32

32:                                               ; preds = %31
  %33 = load i32, i32* %2, align 4
  %34 = add nsw i32 %33, 1
  store i32 %34, i32* %2, align 4
  br label %16

35:                                               ; preds = %16
  ret void
}

declare dso_local i32 @__isoc99_scanf(i8*, ...) #1

; Function Attrs: noinline nounwind uwtable
define dso_local i32 @reverse(i32 %0) #0 {
  %2 = alloca i32, align 4
  %3 = alloca i32, align 4
  %4 = alloca i32, align 4
  %5 = alloca i32, align 4
  %6 = alloca i32, align 4
  %7 = alloca i32, align 4
  %8 = alloca i32, align 4
  store i32 %0, i32* %3, align 4
  store i32 0, i32* %8, align 4
  %9 = load i32, i32* %3, align 4
  %10 = icmp slt i32 %9, 0
  br i1 %10, label %11, label %14

11:                                               ; preds = %1
  %12 = load i32, i32* %3, align 4
  %13 = sub nsw i32 0, %12
  store i32 %13, i32* %4, align 4
  br label %16

14:                                               ; preds = %1
  %15 = load i32, i32* %3, align 4
  store i32 %15, i32* %4, align 4
  br label %16

16:                                               ; preds = %14, %11
  %17 = load i32, i32* %4, align 4
  %18 = sitofp i32 %17 to double
  %19 = call double @log10(double %18) #3
  %20 = fptosi double %19 to i32
  store i32 %20, i32* %6, align 4
  %21 = load i32, i32* %6, align 4
  %22 = add nsw i32 %21, 1
  store i32 %22, i32* %5, align 4
  br label %23

23:                                               ; preds = %59, %16
  %24 = load i32, i32* %5, align 4
  %25 = icmp sgt i32 %24, 0
  br i1 %25, label %26, label %62

26:                                               ; preds = %23
  %27 = load i32, i32* %4, align 4
  %28 = sitofp i32 %27 to double
  %29 = load i32, i32* %5, align 4
  %30 = sub nsw i32 %29, 1
  %31 = sitofp i32 %30 to double
  %32 = call double @pow(double 1.000000e+01, double %31) #3
  %33 = fdiv double %28, %32
  %34 = fptosi double %33 to i32
  store i32 %34, i32* %7, align 4
  %35 = load i32, i32* %7, align 4
  %36 = sitofp i32 %35 to double
  %37 = load i32, i32* %6, align 4
  %38 = load i32, i32* %5, align 4
  %39 = sub nsw i32 %37, %38
  %40 = add nsw i32 %39, 1
  %41 = sitofp i32 %40 to double
  %42 = call double @pow(double 1.000000e+01, double %41) #3
  %43 = fmul double %36, %42
  %44 = load i32, i32* %8, align 4
  %45 = sitofp i32 %44 to double
  %46 = fadd double %43, %45
  %47 = fptosi double %46 to i32
  store i32 %47, i32* %8, align 4
  %48 = load i32, i32* %4, align 4
  %49 = sitofp i32 %48 to double
  %50 = load i32, i32* %7, align 4
  %51 = sitofp i32 %50 to double
  %52 = load i32, i32* %5, align 4
  %53 = sub nsw i32 %52, 1
  %54 = sitofp i32 %53 to double
  %55 = call double @pow(double 1.000000e+01, double %54) #3
  %56 = fmul double %51, %55
  %57 = fsub double %49, %56
  %58 = fptosi double %57 to i32
  store i32 %58, i32* %4, align 4
  br label %59

59:                                               ; preds = %26
  %60 = load i32, i32* %5, align 4
  %61 = add nsw i32 %60, -1
  store i32 %61, i32* %5, align 4
  br label %23

62:                                               ; preds = %23
  %63 = load i32, i32* %3, align 4
  %64 = icmp slt i32 %63, 0
  br i1 %64, label %65, label %68

65:                                               ; preds = %62
  %66 = load i32, i32* %8, align 4
  %67 = sub nsw i32 0, %66
  store i32 %67, i32* %2, align 4
  br label %70

68:                                               ; preds = %62
  %69 = load i32, i32* %8, align 4
  store i32 %69, i32* %2, align 4
  br label %70

70:                                               ; preds = %68, %65
  %71 = load i32, i32* %2, align 4
  ret i32 %71
}

declare dso_local i32 @printf(i8*, ...) #1

; Function Attrs: nounwind
declare dso_local double @log10(double) #2

; Function Attrs: nounwind
declare dso_local double @pow(double, double) #2


!llvm.module.flags = !{!0}
!llvm.ident = !{!1}

!0 = !{i32 1, !"wchar_size", i32 4}
!1 = !{!"clang version 10.0.0-4ubuntu1 "}
